target datalayout = "e-m:e-p270:32:32-p271:32:32-p272:64:64-i64:64-i128:128-f80:128-n8:16:32:64-S128"
target triple = "x86_64-pc-linux-gnu"

%"class.std::basic_istream" = type { ptr, i64, %"class.std::basic_ios" }
%"class.std::basic_ios" = type { %"class.std::ios_base", ptr, i8, i8, ptr, ptr, ptr, ptr }
%"class.std::ios_base" = type { ptr, i64, i64, i32, i32, i32, ptr, %"struct.std::ios_base::_Words", [8 x %"struct.std::ios_base::_Words"], i32, ptr, %"class.std::locale" }
%"struct.std::ios_base::_Words" = type { ptr, i64 }
%"class.std::locale" = type { ptr }
%"class.std::basic_ostream" = type { ptr, %"class.std::basic_ios" }
%class.V3LexerBase = type <{ %class.FlexLexer.base, i32, i32, [4 x i8], ptr, %"class.std::basic_istream", %"class.std::basic_ostream", i8, [3 x i8], i32, ptr, i32, i32, i32, [4 x i8], i64, i64, ptr, i32, [4 x i8], ptr, ptr, ptr, ptr, ptr, i32, i32, i32, i32, i32, i32, i32, [4 x i8] }>
%class.FlexLexer.base = type <{ ptr, ptr, i32, i32, i32 }>

; Function Attrs: mustprogress nounwind uwtable
define linkonce_odr dso_local void @_ZN9FlexLexerD2Ev(ptr noundef nonnull align 8 dereferenceable(28) %0) unnamed_addr #4 comdat align 2 {
  %2 = alloca ptr, align 8
  store ptr %0, ptr %2, align 8
  ret void
}

; Function Attrs: mustprogress nounwind uwtable
define dso_local void @_Z6yyfreePv(ptr noundef %0) #4 {
  %2 = alloca ptr, align 8
  store ptr %0, ptr %2, align 8
  %3 = load ptr, ptr %2, align 8
  call void @free(ptr noundef %3) #3
  ret void
}

; Function Attrs: mustprogress nounwind uwtable
define dso_local void @_ZN11V3LexerBaseD2Ev(ptr noundef nonnull align 8 dereferenceable(732) %0) unnamed_addr #4 align 2 personality ptr @__gxx_personality_v0 {
  %2 = alloca ptr, align 8
  store ptr %0, ptr %2, align 8
  %3 = load ptr, ptr %2, align 8
  store ptr getelementptr inbounds inrange(-16, 120) ({ [17 x ptr] }, ptr @_ZTV11V3LexerBase, i32 0, i32 0, i32 2), ptr %3, align 8
  %4 = getelementptr inbounds %class.V3LexerBase, ptr %3, i32 0, i32 21
  %5 = load ptr, ptr %4, align 8
  %6 = icmp eq ptr %5, null
  br i1 %6, label %8, label %7

7:                                                ; preds = %1
  call void @_ZdaPv(ptr noundef %5) #23
  br label %8

8:                                                ; preds = %7, %1
  %9 = getelementptr inbounds %class.V3LexerBase, ptr %3, i32 0, i32 4
  %10 = load ptr, ptr %9, align 8
  invoke void @_Z6yyfreePv(ptr noundef %10)
          to label %11 unwind label %34

11:                                               ; preds = %8
  %12 = getelementptr inbounds %class.V3LexerBase, ptr %3, i32 0, i32 17
  %13 = load ptr, ptr %12, align 8
  %14 = icmp ne ptr %13, null
  br i1 %14, label %15, label %22

15:                                               ; preds = %11
  %16 = getelementptr inbounds %class.V3LexerBase, ptr %3, i32 0, i32 17
  %17 = load ptr, ptr %16, align 8
  %18 = getelementptr inbounds %class.V3LexerBase, ptr %3, i32 0, i32 15
  %19 = load i64, ptr %18, align 8
  %20 = getelementptr inbounds ptr, ptr %17, i64 %19
  %21 = load ptr, ptr %20, align 8
  br label %23

22:                                               ; preds = %11
  br label %23

23:                                               ; preds = %22, %15
  %24 = phi ptr [ %21, %15 ], [ null, %22 ]
  %25 = load ptr, ptr %3, align 8
  %26 = getelementptr inbounds ptr, ptr %25, i64 5
  %27 = load ptr, ptr %26, align 8
  invoke void %27(ptr noundef nonnull align 8 dereferenceable(732) %3, ptr noundef %24)
          to label %28 unwind label %34

28:                                               ; preds = %23
  %29 = getelementptr inbounds %class.V3LexerBase, ptr %3, i32 0, i32 17
  %30 = load ptr, ptr %29, align 8
  invoke void @_Z6yyfreePv(ptr noundef %30)
          to label %31 unwind label %34

31:                                               ; preds = %28
  %32 = getelementptr inbounds %class.V3LexerBase, ptr %3, i32 0, i32 6
  call void @_ZNSoD1Ev(ptr noundef nonnull align 8 dereferenceable(8) %32) #3
  %33 = getelementptr inbounds %class.V3LexerBase, ptr %3, i32 0, i32 5
  call void @_ZNSiD1Ev(ptr noundef nonnull align 8 dereferenceable(16) %33) #3
  call void @_ZN9FlexLexerD2Ev(ptr noundef nonnull align 8 dereferenceable(28) %3) #3
  ret void

34:                                               ; preds = %28, %23, %8
  %35 = landingpad { ptr, i32 }
          catch ptr null
  %36 = extractvalue { ptr, i32 } %35, 0
  call void @__clang_call_terminate(ptr %36) #24
  unreachable
}