; Function Attrs: mustprogress nounwind uwtable
define dso_local void @_ZN11V3LexerBaseD2Ev(ptr noundef nonnull align 8 dereferenceable(732) %0) unnamed_addr #8 align 2 personality ptr @__gxx_personality_v0 {
  store ptr getelementptr inbounds inrange(-16, 120) ({ [17 x ptr] }, ptr @_ZTV11V3LexerBase, i64 0, i32 0, i64 2), ptr %0, align 8
  %2 = getelementptr inbounds i8, ptr %0, i64 672
  %3 = load ptr, ptr %2, align 8
  %4 = icmp eq ptr %3, null
  br i1 %4, label %6, label %5

5:                                                ; preds = %1
  tail call void @_ZdaPv(ptr noundef nonnull %3) #36
  br label %6

6:                                                ; preds = %5, %1
  %7 = getelementptr inbounds i8, ptr %0, i64 40
  %8 = load ptr, ptr %7, align 8
  tail call void @free(ptr noundef %8) #33
  %9 = getelementptr inbounds i8, ptr %0, i64 648
  %10 = load ptr, ptr %9, align 8
  %.not = icmp eq ptr %10, null
  br i1 %.not, label %16, label %11

11:                                               ; preds = %6
  %12 = getelementptr inbounds i8, ptr %0, i64 632
  %13 = load i64, ptr %12, align 8
  %14 = getelementptr inbounds ptr, ptr %10, i64 %13
  %15 = load ptr, ptr %14, align 8
  br label %16

16:                                               ; preds = %6, %11
  %17 = phi ptr [ %15, %11 ], [ null, %6 ]
  %18 = load ptr, ptr %0, align 8
  %19 = getelementptr inbounds i8, ptr %18, i64 40
  %20 = load ptr, ptr %19, align 8
  invoke void %20(ptr noundef nonnull align 8 dereferenceable(732) %0, ptr noundef %17)
          to label %21 unwind label %25

21:                                               ; preds = %16
  %22 = load ptr, ptr %9, align 8
  tail call void @free(ptr noundef %22) #33
  %23 = getelementptr inbounds i8, ptr %0, i64 328
  tail call void @_ZNSoD1Ev(ptr noundef nonnull align 8 dereferenceable(8) %23) #33
  %24 = getelementptr inbounds i8, ptr %0, i64 48
  tail call void @_ZNSiD1Ev(ptr noundef nonnull align 8 dereferenceable(16) %24) #33
  ret void

25:                                               ; preds = %16
  %26 = landingpad { ptr, i32 }
          catch ptr null
  %27 = extractvalue { ptr, i32 } %26, 0
  tail call void @__clang_call_terminate(ptr %27) #37
  unreachable
}